; Function Attrs: nounwind uwtable
define nonnull ptr @l___private_Lean_Meta_LevelDefEq_0__Lean_Meta_strictOccursMax___boxed(ptr noundef %0, ptr noundef %1) local_unnamed_addr #0 {
  %3 = ptrtoint ptr %1 to i64
  %4 = and i64 %3, 1
  %.not.i.i = icmp eq i64 %4, 0
  br i1 %.not.i.i, label %8, label %5

5:                                                ; preds = %2
  %6 = lshr i64 %3, 1
  %7 = trunc i64 %6 to i32
  br label %lean_obj_tag.exit.i

8:                                                ; preds = %2
  %9 = getelementptr i8, ptr %1, i64 4
  %.val.i.i = load i32, ptr %9, align 4
  %10 = lshr i32 %.val.i.i, 24
  br label %lean_obj_tag.exit.i

lean_obj_tag.exit.i:                              ; preds = %8, %5
  %.0.i.i = phi i32 [ %7, %5 ], [ %10, %8 ]
  %11 = icmp eq i32 %.0.i.i, 2
  br i1 %11, label %12, label %l___private_Lean_Meta_LevelDefEq_0__Lean_Meta_strictOccursMax.exit

12:                                               ; preds = %lean_obj_tag.exit.i
  %13 = getelementptr inbounds nuw i8, ptr %1, i64 8
  %14 = load ptr, ptr %13, align 8, !tbaa !4
  %15 = getelementptr inbounds nuw i8, ptr %1, i64 16
  %16 = load ptr, ptr %15, align 8, !tbaa !4
  %17 = tail call zeroext i8 @l___private_Lean_Meta_LevelDefEq_0__Lean_Meta_strictOccursMax_visit(ptr noundef %0, ptr noundef %14)
  %18 = icmp eq i8 %17, 0
  br i1 %18, label %19, label %l___private_Lean_Meta_LevelDefEq_0__Lean_Meta_strictOccursMax.exit

19:                                               ; preds = %12
  %20 = tail call zeroext i8 @l___private_Lean_Meta_LevelDefEq_0__Lean_Meta_strictOccursMax_visit(ptr noundef %0, ptr noundef %16)
  %21 = zext i8 %20 to i64
  %22 = shl nuw nsw i64 %21, 1
  %23 = or disjoint i64 %22, 1
  br label %l___private_Lean_Meta_LevelDefEq_0__Lean_Meta_strictOccursMax.exit

l___private_Lean_Meta_LevelDefEq_0__Lean_Meta_strictOccursMax.exit: ; preds = %lean_obj_tag.exit.i, %12, %19
  %.1.i = phi i64 [ %23, %19 ], [ 3, %12 ], [ 1, %lean_obj_tag.exit.i ]
  br i1 %.not.i.i, label %24, label %lean_dec.exit5

24:                                               ; preds = %l___private_Lean_Meta_LevelDefEq_0__Lean_Meta_strictOccursMax.exit
  %25 = load i32, ptr %1, align 4, !tbaa !8
  %26 = icmp sgt i32 %25, 1
  br i1 %26, label %27, label %29, !prof !11

27:                                               ; preds = %24
  %28 = add nsw i32 %25, -1
  store i32 %28, ptr %1, align 4, !tbaa !8
  br label %lean_dec.exit5

29:                                               ; preds = %24
  %.not.i = icmp eq i32 %25, 0
  br i1 %.not.i, label %lean_dec.exit5, label %30

30:                                               ; preds = %29
  tail call void @lean_dec_ref_cold(ptr noundef nonnull %1) #4
  br label %lean_dec.exit5

lean_dec.exit5:                                   ; preds = %30, %29, %27, %l___private_Lean_Meta_LevelDefEq_0__Lean_Meta_strictOccursMax.exit
  %31 = ptrtoint ptr %0 to i64
  %32 = and i64 %31, 1
  %.not8 = icmp eq i64 %32, 0
  br i1 %.not8, label %33, label %lean_dec.exit

33:                                               ; preds = %lean_dec.exit5
  %34 = load i32, ptr %0, align 4, !tbaa !8
  %35 = icmp sgt i32 %34, 1
  br i1 %35, label %36, label %38, !prof !11

36:                                               ; preds = %33
  %37 = add nsw i32 %34, -1
  store i32 %37, ptr %0, align 4, !tbaa !8
  br label %lean_dec.exit

38:                                               ; preds = %33
  %.not.i6 = icmp eq i32 %34, 0
  br i1 %.not.i6, label %lean_dec.exit, label %39

39:                                               ; preds = %38
  tail call void @lean_dec_ref_cold(ptr noundef nonnull %0) #4
  br label %lean_dec.exit

lean_dec.exit:                                    ; preds = %39, %38, %36, %lean_dec.exit5
  %40 = inttoptr i64 %.1.i to ptr
  ret ptr %40
}